; Function Attrs: nounwind uwtable
define noalias ptr @l_Array_foldlMUnsafe_fold___at_Lean_Compiler_LCNF_checkDeadLocalDecls_visitDecls___spec__1(ptr noundef readonly captures(none) %0, i64 noundef %1, i64 noundef %2, ptr noundef %3, ptr noundef %4) local_unnamed_addr #0 {
  %.not52 = icmp eq i64 %1, %2
  br i1 %.not52, label %._crit_edge, label %.lr.ph

.lr.ph:                                           ; preds = %5
  %6 = getelementptr inbounds nuw i8, ptr %0, i64 24
  br label %7

7:                                                ; preds = %.lr.ph, %60
  %.02555 = phi i64 [ %1, %.lr.ph ], [ %61, %60 ]
  %.02754 = phi ptr [ %3, %.lr.ph ], [ %29, %60 ]
  %.02953 = phi ptr [ %4, %.lr.ph ], [ %39, %60 ]
  %8 = ptrtoint ptr %.02754 to i64
  %9 = and i64 %8, 1
  %.not48 = icmp eq i64 %9, 0
  br i1 %.not48, label %10, label %lean_dec.exit31

10:                                               ; preds = %7
  %11 = load i32, ptr %.02754, align 4, !tbaa !4
  %12 = icmp sgt i32 %11, 1
  br i1 %12, label %13, label %15, !prof !12

13:                                               ; preds = %10
  %14 = add nsw i32 %11, -1
  store i32 %14, ptr %.02754, align 4, !tbaa !4
  br label %lean_dec.exit31

15:                                               ; preds = %10
  %.not.i = icmp eq i32 %11, 0
  br i1 %.not.i, label %lean_dec.exit31, label %16

16:                                               ; preds = %15
  tail call void @lean_dec_ref_cold(ptr noundef nonnull %.02754) #4
  br label %lean_dec.exit31

lean_dec.exit31:                                  ; preds = %16, %15, %13, %7
  %17 = getelementptr inbounds nuw [0 x ptr], ptr %6, i64 0, i64 %.02555
  %18 = load ptr, ptr %17, align 8, !tbaa !9
  %19 = ptrtoint ptr %18 to i64
  %20 = and i64 %19, 1
  %.not.i35 = icmp eq i64 %20, 0
  br i1 %.not.i35, label %21, label %lean_array_uget.exit

21:                                               ; preds = %lean_dec.exit31
  %.val.i.i = load i32, ptr %18, align 4, !tbaa !4
  %22 = icmp sgt i32 %.val.i.i, 0
  br i1 %22, label %23, label %25, !prof !12

23:                                               ; preds = %21
  %24 = add nuw i32 %.val.i.i, 1
  store i32 %24, ptr %18, align 4, !tbaa !4
  br label %lean_array_uget.exit

25:                                               ; preds = %21
  %.not.i.i = icmp eq i32 %.val.i.i, 0
  br i1 %.not.i.i, label %lean_array_uget.exit, label %26

26:                                               ; preds = %25
  tail call void @lean_inc_ref_cold(ptr noundef nonnull %18) #4
  br label %lean_array_uget.exit

lean_array_uget.exit:                             ; preds = %lean_dec.exit31, %23, %25, %26
  %27 = tail call ptr @l_Lean_Compiler_LCNF_checkDeadLocalDecls_visitDecl(ptr noundef %18, ptr noundef %.02953)
  %28 = getelementptr inbounds nuw i8, ptr %27, i64 8
  %29 = load ptr, ptr %28, align 8, !tbaa !9
  %30 = ptrtoint ptr %29 to i64
  %31 = and i64 %30, 1
  %.not49 = icmp eq i64 %31, 0
  br i1 %.not49, label %32, label %lean_inc.exit32

32:                                               ; preds = %lean_array_uget.exit
  %.val.i = load i32, ptr %29, align 4, !tbaa !4
  %33 = icmp sgt i32 %.val.i, 0
  br i1 %33, label %34, label %36, !prof !12

34:                                               ; preds = %32
  %35 = add nuw i32 %.val.i, 1
  store i32 %35, ptr %29, align 4, !tbaa !4
  br label %lean_inc.exit32

36:                                               ; preds = %32
  %.not.i36 = icmp eq i32 %.val.i, 0
  br i1 %.not.i36, label %lean_inc.exit32, label %37

37:                                               ; preds = %36
  tail call void @lean_inc_ref_cold(ptr noundef nonnull %29) #4
  br label %lean_inc.exit32

lean_inc.exit32:                                  ; preds = %37, %36, %34, %lean_array_uget.exit
  %38 = getelementptr inbounds nuw i8, ptr %27, i64 16
  %39 = load ptr, ptr %38, align 8, !tbaa !9
  %40 = ptrtoint ptr %39 to i64
  %41 = and i64 %40, 1
  %.not50 = icmp eq i64 %41, 0
  br i1 %.not50, label %42, label %lean_inc.exit

42:                                               ; preds = %lean_inc.exit32
  %.val.i37 = load i32, ptr %39, align 4, !tbaa !4
  %43 = icmp sgt i32 %.val.i37, 0
  br i1 %43, label %44, label %46, !prof !12

44:                                               ; preds = %42
  %45 = add nuw i32 %.val.i37, 1
  store i32 %45, ptr %39, align 4, !tbaa !4
  br label %lean_inc.exit

46:                                               ; preds = %42
  %.not.i38 = icmp eq i32 %.val.i37, 0
  br i1 %.not.i38, label %lean_inc.exit, label %47

47:                                               ; preds = %46
  tail call void @lean_inc_ref_cold(ptr noundef nonnull %39) #4
  br label %lean_inc.exit

lean_inc.exit:                                    ; preds = %47, %46, %44, %lean_inc.exit32
  %48 = ptrtoint ptr %27 to i64
  %49 = and i64 %48, 1
  %.not51 = icmp eq i64 %49, 0
  br i1 %.not51, label %50, label %60

50:                                               ; preds = %lean_inc.exit
  %51 = load i32, ptr %27, align 4, !tbaa !4
  %52 = icmp sgt i32 %51, 1
  br i1 %52, label %53, label %55, !prof !12

53:                                               ; preds = %50
  %54 = add nsw i32 %51, -1
  store i32 %54, ptr %27, align 4, !tbaa !4
  br label %60

55:                                               ; preds = %50
  %.not.i33 = icmp eq i32 %51, 0
  br i1 %.not.i33, label %60, label %56

56:                                               ; preds = %55
  tail call void @lean_dec_ref_cold(ptr noundef nonnull %27) #4
  br label %60

._crit_edge:                                      ; preds = %60, %5
  %.029.lcssa = phi ptr [ %4, %5 ], [ %39, %60 ]
  %.027.lcssa = phi ptr [ %3, %5 ], [ %29, %60 ]
  tail call void @lean_inc_heartbeat() #4
  %57 = tail call noalias ptr @mi_malloc_small(i64 noundef 24) #4
  %58 = icmp eq ptr %57, null
  br i1 %58, label %59, label %62

59:                                               ; preds = %._crit_edge
  tail call void @lean_internal_panic_out_of_memory() #5
  unreachable

60:                                               ; preds = %lean_inc.exit, %53, %55, %56
  %61 = add i64 %.02555, 1
  %.not = icmp eq i64 %61, %2
  br i1 %.not, label %._crit_edge, label %7

62:                                               ; preds = %._crit_edge
  %63 = getelementptr inbounds nuw i8, ptr %57, i64 4
  store i32 1, ptr %57, align 4, !tbaa !4
  store i32 131096, ptr %63, align 4
  %64 = getelementptr inbounds nuw i8, ptr %57, i64 8
  store ptr %.027.lcssa, ptr %64, align 8, !tbaa !9
  %65 = getelementptr inbounds nuw i8, ptr %57, i64 16
  store ptr %.029.lcssa, ptr %65, align 8, !tbaa !9
  ret ptr %57
}